target datalayout = "e-m:e-p270:32:32-p271:32:32-p272:64:64-i64:64-i128:128-f80:128-n8:16:32:64-S128"
target triple = "x86_64-pc-linux-gnu"

@.str.11 = private unnamed_addr constant [37 x i8] c"../openssl/test/rsa_sp800_56b_test.c\00", align 1
@.str.12 = private unnamed_addr constant [13 x i8] c"e = BN_new()\00", align 1
@.str.13 = private unnamed_addr constant [18 x i8] c"BN_set_word(e, 1)\00", align 1
@.str.14 = private unnamed_addr constant [34 x i8] c"ossl_rsa_check_public_exponent(e)\00", align 1
@.str.15 = private unnamed_addr constant [22 x i8] c"BN_set_word(e, 65536)\00", align 1
@.str.16 = private unnamed_addr constant [18 x i8] c"BN_set_word(e, 3)\00", align 1
@.str.17 = private unnamed_addr constant [19 x i8] c"BN_set_word(e, 17)\00", align 1
@.str.18 = private unnamed_addr constant [22 x i8] c"BN_set_word(e, 65537)\00", align 1
@.str.19 = private unnamed_addr constant [34 x i8] c"BN_lshift(e, BN_value_one(), 256)\00", align 1
@.str.20 = private unnamed_addr constant [29 x i8] c"BN_add(e, e, BN_value_one())\00", align 1

; Function Attrs: nounwind uwtable
define internal i32 @test_check_public_exponent() #0 {
  %1 = alloca i32, align 4
  %2 = alloca ptr, align 8
  call void @llvm.lifetime.start.p0(i64 4, ptr %1) #3
  store i32 0, ptr %1, align 4, !tbaa !4
  call void @llvm.lifetime.start.p0(i64 8, ptr %2) #3
  store ptr null, ptr %2, align 8, !tbaa !8
  %3 = call ptr @BN_new()
  store ptr %3, ptr %2, align 8, !tbaa !8
  %4 = call i32 @test_ptr(ptr noundef @.str.11, i32 noundef 113, ptr noundef @.str.12, ptr noundef %3)
  %5 = icmp ne i32 %4, 0
  br i1 %5, label %6, label %100

6:                                                ; preds = %0
  %7 = load ptr, ptr %2, align 8, !tbaa !8
  %8 = call i32 @BN_set_word(ptr noundef %7, i64 noundef 1)
  %9 = icmp ne i32 %8, 0
  %10 = zext i1 %9 to i32
  %11 = call i32 @test_true(ptr noundef @.str.11, i32 noundef 115, ptr noundef @.str.13, i32 noundef %10)
  %12 = icmp ne i32 %11, 0
  br i1 %12, label %13, label %100

13:                                               ; preds = %6
  %14 = load ptr, ptr %2, align 8, !tbaa !8
  %15 = call i32 @ossl_rsa_check_public_exponent(ptr noundef %14)
  %16 = icmp ne i32 %15, 0
  %17 = zext i1 %16 to i32
  %18 = call i32 @test_false(ptr noundef @.str.11, i32 noundef 116, ptr noundef @.str.14, i32 noundef %17)
  %19 = icmp ne i32 %18, 0
  br i1 %19, label %20, label %100

20:                                               ; preds = %13
  %21 = load ptr, ptr %2, align 8, !tbaa !8
  %22 = call i32 @BN_set_word(ptr noundef %21, i64 noundef 65536)
  %23 = icmp ne i32 %22, 0
  %24 = zext i1 %23 to i32
  %25 = call i32 @test_true(ptr noundef @.str.11, i32 noundef 118, ptr noundef @.str.15, i32 noundef %24)
  %26 = icmp ne i32 %25, 0
  br i1 %26, label %27, label %100

27:                                               ; preds = %20
  %28 = load ptr, ptr %2, align 8, !tbaa !8
  %29 = call i32 @ossl_rsa_check_public_exponent(ptr noundef %28)
  %30 = icmp ne i32 %29, 0
  %31 = zext i1 %30 to i32
  %32 = call i32 @test_false(ptr noundef @.str.11, i32 noundef 119, ptr noundef @.str.14, i32 noundef %31)
  %33 = icmp ne i32 %32, 0
  br i1 %33, label %34, label %100

34:                                               ; preds = %27
  %35 = load ptr, ptr %2, align 8, !tbaa !8
  %36 = call i32 @BN_set_word(ptr noundef %35, i64 noundef 3)
  %37 = icmp ne i32 %36, 0
  %38 = zext i1 %37 to i32
  %39 = call i32 @test_true(ptr noundef @.str.11, i32 noundef 121, ptr noundef @.str.16, i32 noundef %38)
  %40 = icmp ne i32 %39, 0
  br i1 %40, label %41, label %100

41:                                               ; preds = %34
  %42 = load ptr, ptr %2, align 8, !tbaa !8
  %43 = call i32 @ossl_rsa_check_public_exponent(ptr noundef %42)
  %44 = icmp ne i32 %43, 0
  %45 = zext i1 %44 to i32
  %46 = call i32 @test_true(ptr noundef @.str.11, i32 noundef 122, ptr noundef @.str.14, i32 noundef %45)
  %47 = icmp ne i32 %46, 0
  br i1 %47, label %48, label %100

48:                                               ; preds = %41
  %49 = load ptr, ptr %2, align 8, !tbaa !8
  %50 = call i32 @BN_set_word(ptr noundef %49, i64 noundef 17)
  %51 = icmp ne i32 %50, 0
  %52 = zext i1 %51 to i32
  %53 = call i32 @test_true(ptr noundef @.str.11, i32 noundef 123, ptr noundef @.str.17, i32 noundef %52)
  %54 = icmp ne i32 %53, 0
  br i1 %54, label %55, label %100

55:                                               ; preds = %48
  %56 = load ptr, ptr %2, align 8, !tbaa !8
  %57 = call i32 @ossl_rsa_check_public_exponent(ptr noundef %56)
  %58 = icmp ne i32 %57, 0
  %59 = zext i1 %58 to i32
  %60 = call i32 @test_true(ptr noundef @.str.11, i32 noundef 124, ptr noundef @.str.14, i32 noundef %59)
  %61 = icmp ne i32 %60, 0
  br i1 %61, label %62, label %100

62:                                               ; preds = %55
  %63 = load ptr, ptr %2, align 8, !tbaa !8
  %64 = call i32 @BN_set_word(ptr noundef %63, i64 noundef 65537)
  %65 = icmp ne i32 %64, 0
  %66 = zext i1 %65 to i32
  %67 = call i32 @test_true(ptr noundef @.str.11, i32 noundef 125, ptr noundef @.str.18, i32 noundef %66)
  %68 = icmp ne i32 %67, 0
  br i1 %68, label %69, label %100

69:                                               ; preds = %62
  %70 = load ptr, ptr %2, align 8, !tbaa !8
  %71 = call i32 @ossl_rsa_check_public_exponent(ptr noundef %70)
  %72 = icmp ne i32 %71, 0
  %73 = zext i1 %72 to i32
  %74 = call i32 @test_true(ptr noundef @.str.11, i32 noundef 126, ptr noundef @.str.14, i32 noundef %73)
  %75 = icmp ne i32 %74, 0
  br i1 %75, label %76, label %100

76:                                               ; preds = %69
  %77 = load ptr, ptr %2, align 8, !tbaa !8
  %78 = call ptr @BN_value_one()
  %79 = call i32 @BN_lshift(ptr noundef %77, ptr noundef %78, i32 noundef 256)
  %80 = icmp ne i32 %79, 0
  %81 = zext i1 %80 to i32
  %82 = call i32 @test_true(ptr noundef @.str.11, i32 noundef 128, ptr noundef @.str.19, i32 noundef %81)
  %83 = icmp ne i32 %82, 0
  br i1 %83, label %84, label %100

84:                                               ; preds = %76
  %85 = load ptr, ptr %2, align 8, !tbaa !8
  %86 = load ptr, ptr %2, align 8, !tbaa !8
  %87 = call ptr @BN_value_one()
  %88 = call i32 @BN_add(ptr noundef %85, ptr noundef %86, ptr noundef %87)
  %89 = icmp ne i32 %88, 0
  %90 = zext i1 %89 to i32
  %91 = call i32 @test_true(ptr noundef @.str.11, i32 noundef 129, ptr noundef @.str.20, i32 noundef %90)
  %92 = icmp ne i32 %91, 0
  br i1 %92, label %93, label %100

93:                                               ; preds = %84
  %94 = load ptr, ptr %2, align 8, !tbaa !8
  %95 = call i32 @ossl_rsa_check_public_exponent(ptr noundef %94)
  %96 = icmp ne i32 %95, 0
  %97 = zext i1 %96 to i32
  %98 = call i32 @test_true(ptr noundef @.str.11, i32 noundef 130, ptr noundef @.str.14, i32 noundef %97)
  %99 = icmp ne i32 %98, 0
  br label %100

100:                                              ; preds = %93, %84, %76, %69, %62, %55, %48, %41, %34, %27, %20, %13, %6, %0
  %101 = phi i1 [ false, %84 ], [ false, %76 ], [ false, %69 ], [ false, %62 ], [ false, %55 ], [ false, %48 ], [ false, %41 ], [ false, %34 ], [ false, %27 ], [ false, %20 ], [ false, %13 ], [ false, %6 ], [ false, %0 ], [ %99, %93 ]
  %102 = zext i1 %101 to i32
  store i32 %102, ptr %1, align 4, !tbaa !4
  %103 = load ptr, ptr %2, align 8, !tbaa !8
  call void @BN_free(ptr noundef %103)
  %104 = load i32, ptr %1, align 4, !tbaa !4
  call void @llvm.lifetime.end.p0(i64 8, ptr %2) #3
  call void @llvm.lifetime.end.p0(i64 4, ptr %1) #3
  ret i32 %104
}