; Function Attrs: nounwind uwtable
define internal range(i32 0, 2) i32 @test_check_public_exponent() #0 {
  %1 = tail call ptr @BN_new() #2
  %2 = tail call i32 @test_ptr(ptr noundef nonnull @.str.11, i32 noundef 113, ptr noundef nonnull @.str.12, ptr noundef %1) #2
  %.not = icmp eq i32 %2, 0
  br i1 %.not, label %72, label %3

3:                                                ; preds = %0
  %4 = tail call i32 @BN_set_word(ptr noundef %1, i64 noundef 1) #2
  %5 = icmp ne i32 %4, 0
  %6 = zext i1 %5 to i32
  %7 = tail call i32 @test_true(ptr noundef nonnull @.str.11, i32 noundef 115, ptr noundef nonnull @.str.13, i32 noundef %6) #2
  %.not15 = icmp eq i32 %7, 0
  br i1 %.not15, label %72, label %8

8:                                                ; preds = %3
  %9 = tail call i32 @ossl_rsa_check_public_exponent(ptr noundef %1) #2
  %10 = icmp ne i32 %9, 0
  %11 = zext i1 %10 to i32
  %12 = tail call i32 @test_false(ptr noundef nonnull @.str.11, i32 noundef 116, ptr noundef nonnull @.str.14, i32 noundef %11) #2
  %.not16 = icmp eq i32 %12, 0
  br i1 %.not16, label %72, label %13

13:                                               ; preds = %8
  %14 = tail call i32 @BN_set_word(ptr noundef %1, i64 noundef 65536) #2
  %15 = icmp ne i32 %14, 0
  %16 = zext i1 %15 to i32
  %17 = tail call i32 @test_true(ptr noundef nonnull @.str.11, i32 noundef 118, ptr noundef nonnull @.str.15, i32 noundef %16) #2
  %.not17 = icmp eq i32 %17, 0
  br i1 %.not17, label %72, label %18

18:                                               ; preds = %13
  %19 = tail call i32 @ossl_rsa_check_public_exponent(ptr noundef %1) #2
  %20 = icmp ne i32 %19, 0
  %21 = zext i1 %20 to i32
  %22 = tail call i32 @test_false(ptr noundef nonnull @.str.11, i32 noundef 119, ptr noundef nonnull @.str.14, i32 noundef %21) #2
  %.not18 = icmp eq i32 %22, 0
  br i1 %.not18, label %72, label %23

23:                                               ; preds = %18
  %24 = tail call i32 @BN_set_word(ptr noundef %1, i64 noundef 3) #2
  %25 = icmp ne i32 %24, 0
  %26 = zext i1 %25 to i32
  %27 = tail call i32 @test_true(ptr noundef nonnull @.str.11, i32 noundef 121, ptr noundef nonnull @.str.16, i32 noundef %26) #2
  %.not19 = icmp eq i32 %27, 0
  br i1 %.not19, label %72, label %28

28:                                               ; preds = %23
  %29 = tail call i32 @ossl_rsa_check_public_exponent(ptr noundef %1) #2
  %30 = icmp ne i32 %29, 0
  %31 = zext i1 %30 to i32
  %32 = tail call i32 @test_true(ptr noundef nonnull @.str.11, i32 noundef 122, ptr noundef nonnull @.str.14, i32 noundef %31) #2
  %.not20 = icmp eq i32 %32, 0
  br i1 %.not20, label %72, label %33

33:                                               ; preds = %28
  %34 = tail call i32 @BN_set_word(ptr noundef %1, i64 noundef 17) #2
  %35 = icmp ne i32 %34, 0
  %36 = zext i1 %35 to i32
  %37 = tail call i32 @test_true(ptr noundef nonnull @.str.11, i32 noundef 123, ptr noundef nonnull @.str.17, i32 noundef %36) #2
  %.not21 = icmp eq i32 %37, 0
  br i1 %.not21, label %72, label %38

38:                                               ; preds = %33
  %39 = tail call i32 @ossl_rsa_check_public_exponent(ptr noundef %1) #2
  %40 = icmp ne i32 %39, 0
  %41 = zext i1 %40 to i32
  %42 = tail call i32 @test_true(ptr noundef nonnull @.str.11, i32 noundef 124, ptr noundef nonnull @.str.14, i32 noundef %41) #2
  %.not22 = icmp eq i32 %42, 0
  br i1 %.not22, label %72, label %43

43:                                               ; preds = %38
  %44 = tail call i32 @BN_set_word(ptr noundef %1, i64 noundef 65537) #2
  %45 = icmp ne i32 %44, 0
  %46 = zext i1 %45 to i32
  %47 = tail call i32 @test_true(ptr noundef nonnull @.str.11, i32 noundef 125, ptr noundef nonnull @.str.18, i32 noundef %46) #2
  %.not23 = icmp eq i32 %47, 0
  br i1 %.not23, label %72, label %48

48:                                               ; preds = %43
  %49 = tail call i32 @ossl_rsa_check_public_exponent(ptr noundef %1) #2
  %50 = icmp ne i32 %49, 0
  %51 = zext i1 %50 to i32
  %52 = tail call i32 @test_true(ptr noundef nonnull @.str.11, i32 noundef 126, ptr noundef nonnull @.str.14, i32 noundef %51) #2
  %.not24 = icmp eq i32 %52, 0
  br i1 %.not24, label %72, label %53

53:                                               ; preds = %48
  %54 = tail call ptr @BN_value_one() #2
  %55 = tail call i32 @BN_lshift(ptr noundef %1, ptr noundef %54, i32 noundef 256) #2
  %56 = icmp ne i32 %55, 0
  %57 = zext i1 %56 to i32
  %58 = tail call i32 @test_true(ptr noundef nonnull @.str.11, i32 noundef 128, ptr noundef nonnull @.str.19, i32 noundef %57) #2
  %.not25 = icmp eq i32 %58, 0
  br i1 %.not25, label %72, label %59

59:                                               ; preds = %53
  %60 = tail call ptr @BN_value_one() #2
  %61 = tail call i32 @BN_add(ptr noundef %1, ptr noundef %1, ptr noundef %60) #2
  %62 = icmp ne i32 %61, 0
  %63 = zext i1 %62 to i32
  %64 = tail call i32 @test_true(ptr noundef nonnull @.str.11, i32 noundef 129, ptr noundef nonnull @.str.20, i32 noundef %63) #2
  %.not26 = icmp eq i32 %64, 0
  br i1 %.not26, label %72, label %65

65:                                               ; preds = %59
  %66 = tail call i32 @ossl_rsa_check_public_exponent(ptr noundef %1) #2
  %67 = icmp ne i32 %66, 0
  %68 = zext i1 %67 to i32
  %69 = tail call i32 @test_true(ptr noundef nonnull @.str.11, i32 noundef 130, ptr noundef nonnull @.str.14, i32 noundef %68) #2
  %70 = icmp ne i32 %69, 0
  %71 = zext i1 %70 to i32
  br label %72

72:                                               ; preds = %65, %59, %53, %48, %43, %38, %33, %28, %23, %18, %13, %8, %3, %0
  %73 = phi i32 [ 0, %59 ], [ 0, %53 ], [ 0, %48 ], [ 0, %43 ], [ 0, %38 ], [ 0, %33 ], [ 0, %28 ], [ 0, %23 ], [ 0, %18 ], [ 0, %13 ], [ 0, %8 ], [ 0, %3 ], [ 0, %0 ], [ %71, %65 ]
  tail call void @BN_free(ptr noundef %1) #2
  ret i32 %73
}